target datalayout = "e-m:e-p270:32:32-p271:32:32-p272:64:64-i64:64-i128:128-f80:128-n8:16:32:64-S128"
target triple = "x86_64-pc-linux-gnu"

%struct.settings = type { i64, i32, i32, i32, ptr, i32, i32, i32, ptr, ptr, i32, double, i32, i32, i32, i8, i32, i32, i8, i32, i32, i32, i32, i32, i32, i8, i8, i8, i8, i8, i8, i8, i32, i32, double, double, i32, i32, i8, i32, i8, i8, ptr, i32, i32, i32, i32, double, double, i32, i8, i32, i32, i32, i32, i32, i8, i8, i8, ptr, i32, i32, i32, i32, i32, i32, i32, i32, i32, i32, double, i8, i32, i32, ptr, i32 }
%struct.timeval = type { i64, i64 }
%struct.event = type { %struct.event_callback, %union.anon.0, i32, ptr, %union.anon.2, i16, i16, %struct.timeval }
%struct.event_callback = type { %struct.anon, i16, i8, i8, %union.anon, ptr }
%struct.anon = type { ptr, ptr }
%union.anon = type { ptr }
%union.anon.0 = type { %struct.anon.1 }
%struct.anon.1 = type { ptr, ptr }
%union.anon.2 = type { %struct.anon.3 }
%struct.anon.3 = type { %struct.anon.4, %struct.timeval }
%struct.anon.4 = type { ptr, ptr }
%struct.conn = type { ptr, i32, i8, i8, i8, i8, i8, i8, i8, i8, ptr, i32, i32, i32, %struct.event, i16, i16, ptr, ptr, i32, i32, ptr, ptr, ptr, i32, ptr, i32, i32, i32, i32, i32, i32, i32, %struct.sockaddr_in6, i32, i8, %struct.anon.9, %union.protocol_binary_request_header, i64, i64, i16, i32, i32, ptr, ptr, ptr, ptr, ptr, ptr }
%struct.sockaddr_in6 = type { i16, i16, i32, %struct.in6_addr, i32 }
%struct.in6_addr = type { %union.anon.8 }
%union.anon.8 = type { [4 x i32] }
%struct.anon.9 = type { ptr, i64, i64 }
%union.protocol_binary_request_header = type { %struct.anon.10 }
%struct.anon.10 = type { i8, i8, i16, i8, i8, i16, i32, i32, i64 }

@settings = external global %struct.settings, align 8
@stderr = external global ptr, align 8
@.str.14 = private unnamed_addr constant [42 x i8] c"<%d connection closing from side thread.\0A\00", align 1

; Function Attrs: nounwind uwtable
define dso_local void @redispatch_conn(ptr noundef %0) #0 {
  %2 = alloca ptr, align 8
  store ptr %0, ptr %2, align 8, !tbaa !80
  %3 = load ptr, ptr %2, align 8, !tbaa !80
  %4 = getelementptr inbounds nuw %struct.conn, ptr %3, i32 0, i32 44
  %5 = load ptr, ptr %4, align 8, !tbaa !81
  %6 = load ptr, ptr %2, align 8, !tbaa !80
  %7 = getelementptr inbounds nuw %struct.conn, ptr %6, i32 0, i32 1
  %8 = load i32, ptr %7, align 8, !tbaa !87
  call void @notify_worker_fd(ptr noundef %5, i32 noundef %8, i32 noundef 3)
  ret void
}

; Function Attrs: nounwind uwtable
define dso_local void @sidethread_conn_close(ptr noundef %0) #0 {
  %2 = alloca ptr, align 8
  store ptr %0, ptr %2, align 8, !tbaa !80
  %3 = load i32, ptr getelementptr inbounds nuw (%struct.settings, ptr @settings, i32 0, i32 5), align 8, !tbaa !52
  %4 = icmp sgt i32 %3, 1
  br i1 %4, label %5, label %11

5:                                                ; preds = %1
  %6 = load ptr, ptr @stderr, align 8, !tbaa !18
  %7 = load ptr, ptr %2, align 8, !tbaa !80
  %8 = getelementptr inbounds nuw %struct.conn, ptr %7, i32 0, i32 1
  %9 = load i32, ptr %8, align 8, !tbaa !87
  %10 = call i32 (ptr, ptr, ...) @fprintf(ptr noundef %6, ptr noundef @.str.14, i32 noundef %9) #8
  br label %11

11:                                               ; preds = %5, %1
  %12 = load ptr, ptr %2, align 8, !tbaa !80
  %13 = getelementptr inbounds nuw %struct.conn, ptr %12, i32 0, i32 11
  store i32 8, ptr %13, align 8, !tbaa !96
  %14 = load ptr, ptr %2, align 8, !tbaa !80
  call void @redispatch_conn(ptr noundef %14)
  ret void
}