; Function Attrs: nounwind uwtable
define dso_local void @sidethread_conn_close(ptr noundef captures(none) initializes((32, 36)) %0) local_unnamed_addr #0 {
  %2 = load i32, ptr getelementptr inbounds nuw (i8, ptr @settings, i64 32), align 8, !tbaa !59
  %3 = icmp sgt i32 %2, 1
  br i1 %3, label %4, label %9

4:                                                ; preds = %1
  %5 = load ptr, ptr @stderr, align 8, !tbaa !18
  %6 = getelementptr inbounds nuw i8, ptr %0, i64 8
  %7 = load i32, ptr %6, align 8, !tbaa !86
  %8 = tail call i32 (ptr, ptr, ...) @fprintf(ptr noundef %5, ptr noundef nonnull @.str.14, i32 noundef %7) #16
  br label %9

9:                                                ; preds = %4, %1
  %10 = getelementptr inbounds nuw i8, ptr %0, i64 32
  store i32 8, ptr %10, align 8, !tbaa !95
  %11 = getelementptr inbounds nuw i8, ptr %0, i64 400
  %12 = load ptr, ptr %11, align 8, !tbaa !80
  %13 = getelementptr inbounds nuw i8, ptr %0, i64 8
  %14 = load i32, ptr %13, align 8, !tbaa !86
  tail call fastcc void @notify_worker_fd(ptr noundef %12, i32 noundef %14, i32 noundef 3)
  ret void
}